target datalayout = "e-m:e-p270:32:32-p271:32:32-p272:64:64-i64:64-i128:128-f80:128-n8:16:32:64-S128"
target triple = "x86_64-pc-linux-gnu"

%struct.AVRational = type { i32, i32 }
%struct.AVStream = type { ptr, i32, i32, ptr, ptr, %struct.AVRational, i64, i64, i64, i32, i32, %struct.AVRational, ptr, %struct.AVRational, %struct.AVPacket, i32, %struct.AVRational, i32 }
%struct.AVPacket = type { ptr, i64, i64, ptr, i32, i32, i32, ptr, i32, i64, i64, ptr, ptr, %struct.AVRational }
%struct.MOVStreamContext = type { ptr, i32, i32, i32, i32, i32, i32, ptr, i32, i32, ptr, i32, i32, ptr, i32, ptr, i32, i32, ptr, i32, ptr, i32, i32, i32, ptr, ptr, i32, i32, i32, i32, i32, i32, ptr, i32, i32, ptr, i32, i64, i64, i32, i64, ptr, ptr, i32, i32, i32, i32, i16, i32, ptr, i32, i32, i32, i32, i32, i32, i32, i32, i32, [256 x i32], i32, i64, i32, i8, i64, i32, i32, ptr, i32, ptr, ptr, i32, ptr, i32, ptr, i32, i32, i32, i64, ptr, ptr, i32, i32, i32, ptr, ptr, i64, ptr, i64, ptr, i64, ptr, i64, ptr, i64, i32, i32, %struct.anon, ptr, i32 }
%struct.anon = type { ptr, ptr, i32, ptr, ptr }
%struct.MOVDref = type { i32, ptr, ptr, [28 x i8], [64 x i8], i16, i16 }
%struct.MOVEncryptionIndex = type { i32, ptr, ptr, i64, i8, ptr, i64 }

; Function Attrs: nounwind uwtable
define internal void @mov_free_encryption_index(ptr noundef %0) #0 {
  %2 = alloca ptr, align 8
  %3 = alloca i32, align 4
  %4 = alloca i32, align 4
  store ptr %0, ptr %2, align 8, !tbaa !758
  call void @llvm.lifetime.start.p0(i64 4, ptr %3) #14
  %5 = load ptr, ptr %2, align 8, !tbaa !758
  %6 = icmp ne ptr %5, null
  br i1 %6, label %7, label %11

7:                                                ; preds = %1
  %8 = load ptr, ptr %2, align 8, !tbaa !758
  %9 = load ptr, ptr %8, align 8, !tbaa !485
  %10 = icmp ne ptr %9, null
  br i1 %10, label %12, label %11

11:                                               ; preds = %7, %1
  store i32 1, ptr %4, align 4
  br label %43

12:                                               ; preds = %7
  store i32 0, ptr %3, align 4, !tbaa !11
  br label %13

13:                                               ; preds = %29, %12
  %14 = load i32, ptr %3, align 4, !tbaa !11
  %15 = load ptr, ptr %2, align 8, !tbaa !758
  %16 = load ptr, ptr %15, align 8, !tbaa !485
  %17 = getelementptr inbounds nuw %struct.MOVEncryptionIndex, ptr %16, i32 0, i32 0
  %18 = load i32, ptr %17, align 8, !tbaa !486
  %19 = icmp ult i32 %14, %18
  br i1 %19, label %20, label %32

20:                                               ; preds = %13
  %21 = load ptr, ptr %2, align 8, !tbaa !758
  %22 = load ptr, ptr %21, align 8, !tbaa !485
  %23 = getelementptr inbounds nuw %struct.MOVEncryptionIndex, ptr %22, i32 0, i32 1
  %24 = load ptr, ptr %23, align 8, !tbaa !489
  %25 = load i32, ptr %3, align 4, !tbaa !11
  %26 = sext i32 %25 to i64
  %27 = getelementptr inbounds ptr, ptr %24, i64 %26
  %28 = load ptr, ptr %27, align 8, !tbaa !491
  call void @av_encryption_info_free(ptr noundef %28)
  br label %29

29:                                               ; preds = %20
  %30 = load i32, ptr %3, align 4, !tbaa !11
  %31 = add nsw i32 %30, 1
  store i32 %31, ptr %3, align 4, !tbaa !11
  br label %13, !llvm.loop !795

32:                                               ; preds = %13
  %33 = load ptr, ptr %2, align 8, !tbaa !758
  %34 = load ptr, ptr %33, align 8, !tbaa !485
  %35 = getelementptr inbounds nuw %struct.MOVEncryptionIndex, ptr %34, i32 0, i32 1
  call void @av_freep(ptr noundef %35)
  %36 = load ptr, ptr %2, align 8, !tbaa !758
  %37 = load ptr, ptr %36, align 8, !tbaa !485
  %38 = getelementptr inbounds nuw %struct.MOVEncryptionIndex, ptr %37, i32 0, i32 2
  call void @av_freep(ptr noundef %38)
  %39 = load ptr, ptr %2, align 8, !tbaa !758
  %40 = load ptr, ptr %39, align 8, !tbaa !485
  %41 = getelementptr inbounds nuw %struct.MOVEncryptionIndex, ptr %40, i32 0, i32 5
  call void @av_freep(ptr noundef %41)
  %42 = load ptr, ptr %2, align 8, !tbaa !758
  call void @av_freep(ptr noundef %42)
  store i32 0, ptr %4, align 4
  br label %43

43:                                               ; preds = %32, %11
  call void @llvm.lifetime.end.p0(i64 4, ptr %3) #14
  %44 = load i32, ptr %4, align 4
  switch i32 %44, label %46 [
    i32 0, label %45
    i32 1, label %45
  ]

45:                                               ; preds = %43, %43
  ret void

46:                                               ; preds = %43
  unreachable
}

; Function Attrs: nounwind uwtable
define internal void @mov_free_stream_context(ptr noundef %0, ptr noundef %1) #0 {
  %3 = alloca ptr, align 8
  %4 = alloca ptr, align 8
  %5 = alloca ptr, align 8
  %6 = alloca i32, align 4
  %7 = alloca i32, align 4
  %8 = alloca i32, align 4
  store ptr %0, ptr %3, align 8, !tbaa !158
  store ptr %1, ptr %4, align 8, !tbaa !42
  call void @llvm.lifetime.start.p0(i64 8, ptr %5) #14
  %9 = load ptr, ptr %4, align 8, !tbaa !42
  %10 = getelementptr inbounds nuw %struct.AVStream, ptr %9, i32 0, i32 4
  %11 = load ptr, ptr %10, align 8, !tbaa !44
  store ptr %11, ptr %5, align 8, !tbaa !51
  %12 = load ptr, ptr %5, align 8, !tbaa !51
  %13 = icmp ne ptr %12, null
  br i1 %13, label %14, label %20

14:                                               ; preds = %2
  %15 = load ptr, ptr %5, align 8, !tbaa !51
  %16 = getelementptr inbounds nuw %struct.MOVStreamContext, ptr %15, i32 0, i32 1
  %17 = load i32, ptr %16, align 8, !tbaa !437
  %18 = add nsw i32 %17, -1
  store i32 %18, ptr %16, align 8, !tbaa !437
  %19 = icmp ne i32 %18, 0
  br i1 %19, label %20, label %23

20:                                               ; preds = %14, %2
  %21 = load ptr, ptr %4, align 8, !tbaa !42
  %22 = getelementptr inbounds nuw %struct.AVStream, ptr %21, i32 0, i32 4
  store ptr null, ptr %22, align 8, !tbaa !44
  store i32 1, ptr %6, align 4
  br label %161

23:                                               ; preds = %14
  %24 = load ptr, ptr %5, align 8, !tbaa !51
  %25 = getelementptr inbounds nuw %struct.MOVStreamContext, ptr %24, i32 0, i32 10
  call void @av_freep(ptr noundef %25)
  call void @llvm.lifetime.start.p0(i64 4, ptr %7) #14
  store i32 0, ptr %7, align 4, !tbaa !11
  br label %26

26:                                               ; preds = %48, %23
  %27 = load i32, ptr %7, align 4, !tbaa !11
  %28 = load ptr, ptr %5, align 8, !tbaa !51
  %29 = getelementptr inbounds nuw %struct.MOVStreamContext, ptr %28, i32 0, i32 48
  %30 = load i32, ptr %29, align 4, !tbaa !311
  %31 = icmp ult i32 %27, %30
  br i1 %31, label %33, label %32

32:                                               ; preds = %26
  store i32 2, ptr %6, align 4
  call void @llvm.lifetime.end.p0(i64 4, ptr %7) #14
  br label %51

33:                                               ; preds = %26
  %34 = load ptr, ptr %5, align 8, !tbaa !51
  %35 = getelementptr inbounds nuw %struct.MOVStreamContext, ptr %34, i32 0, i32 49
  %36 = load ptr, ptr %35, align 8, !tbaa !312
  %37 = load i32, ptr %7, align 4, !tbaa !11
  %38 = sext i32 %37 to i64
  %39 = getelementptr inbounds %struct.MOVDref, ptr %36, i64 %38
  %40 = getelementptr inbounds nuw %struct.MOVDref, ptr %39, i32 0, i32 1
  call void @av_freep(ptr noundef %40)
  %41 = load ptr, ptr %5, align 8, !tbaa !51
  %42 = getelementptr inbounds nuw %struct.MOVStreamContext, ptr %41, i32 0, i32 49
  %43 = load ptr, ptr %42, align 8, !tbaa !312
  %44 = load i32, ptr %7, align 4, !tbaa !11
  %45 = sext i32 %44 to i64
  %46 = getelementptr inbounds %struct.MOVDref, ptr %43, i64 %45
  %47 = getelementptr inbounds nuw %struct.MOVDref, ptr %46, i32 0, i32 2
  call void @av_freep(ptr noundef %47)
  br label %48

48:                                               ; preds = %33
  %49 = load i32, ptr %7, align 4, !tbaa !11
  %50 = add nsw i32 %49, 1
  store i32 %50, ptr %7, align 4, !tbaa !11
  br label %26, !llvm.loop !789

51:                                               ; preds = %32
  %52 = load ptr, ptr %5, align 8, !tbaa !51
  %53 = getelementptr inbounds nuw %struct.MOVStreamContext, ptr %52, i32 0, i32 49
  call void @av_freep(ptr noundef %53)
  %54 = load ptr, ptr %5, align 8, !tbaa !51
  %55 = getelementptr inbounds nuw %struct.MOVStreamContext, ptr %54, i32 0, i32 48
  store i32 0, ptr %55, align 4, !tbaa !311
  %56 = load ptr, ptr %5, align 8, !tbaa !51
  %57 = getelementptr inbounds nuw %struct.MOVStreamContext, ptr %56, i32 0, i32 2
  %58 = load i32, ptr %57, align 4, !tbaa !442
  %59 = icmp ne i32 %58, 0
  br i1 %59, label %65, label %60

60:                                               ; preds = %51
  %61 = load ptr, ptr %3, align 8, !tbaa !158
  %62 = load ptr, ptr %5, align 8, !tbaa !51
  %63 = getelementptr inbounds nuw %struct.MOVStreamContext, ptr %62, i32 0, i32 0
  %64 = call i32 @ff_format_io_close(ptr noundef %61, ptr noundef %63)
  br label %65

65:                                               ; preds = %60, %51
  %66 = load ptr, ptr %5, align 8, !tbaa !51
  %67 = getelementptr inbounds nuw %struct.MOVStreamContext, ptr %66, i32 0, i32 0
  store ptr null, ptr %67, align 8, !tbaa !231
  %68 = load ptr, ptr %5, align 8, !tbaa !51
  %69 = getelementptr inbounds nuw %struct.MOVStreamContext, ptr %68, i32 0, i32 7
  call void @av_freep(ptr noundef %69)
  %70 = load ptr, ptr %5, align 8, !tbaa !51
  %71 = getelementptr inbounds nuw %struct.MOVStreamContext, ptr %70, i32 0, i32 20
  call void @av_freep(ptr noundef %71)
  %72 = load ptr, ptr %5, align 8, !tbaa !51
  %73 = getelementptr inbounds nuw %struct.MOVStreamContext, ptr %72, i32 0, i32 32
  call void @av_freep(ptr noundef %73)
  %74 = load ptr, ptr %5, align 8, !tbaa !51
  %75 = getelementptr inbounds nuw %struct.MOVStreamContext, ptr %74, i32 0, i32 35
  call void @av_freep(ptr noundef %75)
  %76 = load ptr, ptr %5, align 8, !tbaa !51
  %77 = getelementptr inbounds nuw %struct.MOVStreamContext, ptr %76, i32 0, i32 18
  call void @av_freep(ptr noundef %77)
  %78 = load ptr, ptr %5, align 8, !tbaa !51
  %79 = getelementptr inbounds nuw %struct.MOVStreamContext, ptr %78, i32 0, i32 13
  call void @av_freep(ptr noundef %79)
  %80 = load ptr, ptr %5, align 8, !tbaa !51
  %81 = getelementptr inbounds nuw %struct.MOVStreamContext, ptr %80, i32 0, i32 15
  call void @av_freep(ptr noundef %81)
  %82 = load ptr, ptr %5, align 8, !tbaa !51
  %83 = getelementptr inbounds nuw %struct.MOVStreamContext, ptr %82, i32 0, i32 24
  call void @av_freep(ptr noundef %83)
  %84 = load ptr, ptr %5, align 8, !tbaa !51
  %85 = getelementptr inbounds nuw %struct.MOVStreamContext, ptr %84, i32 0, i32 25
  call void @av_freep(ptr noundef %85)
  %86 = load ptr, ptr %5, align 8, !tbaa !51
  %87 = getelementptr inbounds nuw %struct.MOVStreamContext, ptr %86, i32 0, i32 67
  call void @av_freep(ptr noundef %87)
  %88 = load ptr, ptr %5, align 8, !tbaa !51
  %89 = getelementptr inbounds nuw %struct.MOVStreamContext, ptr %88, i32 0, i32 69
  call void @av_freep(ptr noundef %89)
  %90 = load ptr, ptr %5, align 8, !tbaa !51
  %91 = getelementptr inbounds nuw %struct.MOVStreamContext, ptr %90, i32 0, i32 70
  call void @av_freep(ptr noundef %91)
  %92 = load ptr, ptr %5, align 8, !tbaa !51
  %93 = getelementptr inbounds nuw %struct.MOVStreamContext, ptr %92, i32 0, i32 72
  call void @av_freep(ptr noundef %93)
  %94 = load ptr, ptr %5, align 8, !tbaa !51
  %95 = getelementptr inbounds nuw %struct.MOVStreamContext, ptr %94, i32 0, i32 74
  call void @av_freep(ptr noundef %95)
  %96 = load ptr, ptr %5, align 8, !tbaa !51
  %97 = getelementptr inbounds nuw %struct.MOVStreamContext, ptr %96, i32 0, i32 84
  call void @av_freep(ptr noundef %97)
  %98 = load ptr, ptr %5, align 8, !tbaa !51
  %99 = getelementptr inbounds nuw %struct.MOVStreamContext, ptr %98, i32 0, i32 41
  call void @av_freep(ptr noundef %99)
  %100 = load ptr, ptr %5, align 8, !tbaa !51
  %101 = getelementptr inbounds nuw %struct.MOVStreamContext, ptr %100, i32 0, i32 79
  %102 = load ptr, ptr %101, align 8, !tbaa !93
  %103 = icmp ne ptr %102, null
  br i1 %103, label %104, label %124

104:                                              ; preds = %65
  call void @llvm.lifetime.start.p0(i64 4, ptr %8) #14
  store i32 0, ptr %8, align 4, !tbaa !11
  br label %105

105:                                              ; preds = %120, %104
  %106 = load i32, ptr %8, align 4, !tbaa !11
  %107 = load ptr, ptr %5, align 8, !tbaa !51
  %108 = getelementptr inbounds nuw %struct.MOVStreamContext, ptr %107, i32 0, i32 82
  %109 = load i32, ptr %108, align 4, !tbaa !64
  %110 = icmp slt i32 %106, %109
  br i1 %110, label %112, label %111

111:                                              ; preds = %105
  store i32 5, ptr %6, align 4
  call void @llvm.lifetime.end.p0(i64 4, ptr %8) #14
  br label %123

112:                                              ; preds = %105
  %113 = load ptr, ptr %5, align 8, !tbaa !51
  %114 = getelementptr inbounds nuw %struct.MOVStreamContext, ptr %113, i32 0, i32 79
  %115 = load ptr, ptr %114, align 8, !tbaa !93
  %116 = load i32, ptr %8, align 4, !tbaa !11
  %117 = sext i32 %116 to i64
  %118 = getelementptr inbounds ptr, ptr %115, i64 %117
  %119 = load ptr, ptr %118, align 8, !tbaa !97
  call void @av_free(ptr noundef %119)
  br label %120

120:                                              ; preds = %112
  %121 = load i32, ptr %8, align 4, !tbaa !11
  %122 = add nsw i32 %121, 1
  store i32 %122, ptr %8, align 4, !tbaa !11
  br label %105, !llvm.loop !790

123:                                              ; preds = %111
  br label %124

124:                                              ; preds = %123, %65
  %125 = load ptr, ptr %5, align 8, !tbaa !51
  %126 = getelementptr inbounds nuw %struct.MOVStreamContext, ptr %125, i32 0, i32 79
  call void @av_freep(ptr noundef %126)
  %127 = load ptr, ptr %5, align 8, !tbaa !51
  %128 = getelementptr inbounds nuw %struct.MOVStreamContext, ptr %127, i32 0, i32 80
  call void @av_freep(ptr noundef %128)
  %129 = load ptr, ptr %5, align 8, !tbaa !51
  %130 = getelementptr inbounds nuw %struct.MOVStreamContext, ptr %129, i32 0, i32 97
  %131 = getelementptr inbounds nuw %struct.anon, ptr %130, i32 0, i32 4
  call void @mov_free_encryption_index(ptr noundef %131)
  %132 = load ptr, ptr %5, align 8, !tbaa !51
  %133 = getelementptr inbounds nuw %struct.MOVStreamContext, ptr %132, i32 0, i32 97
  %134 = getelementptr inbounds nuw %struct.anon, ptr %133, i32 0, i32 3
  %135 = load ptr, ptr %134, align 8, !tbaa !495
  call void @av_encryption_info_free(ptr noundef %135)
  %136 = load ptr, ptr %5, align 8, !tbaa !51
  %137 = getelementptr inbounds nuw %struct.MOVStreamContext, ptr %136, i32 0, i32 97
  %138 = getelementptr inbounds nuw %struct.anon, ptr %137, i32 0, i32 0
  %139 = load ptr, ptr %138, align 8, !tbaa !791
  call void @av_aes_ctr_free(ptr noundef %139)
  %140 = load ptr, ptr %5, align 8, !tbaa !51
  %141 = getelementptr inbounds nuw %struct.MOVStreamContext, ptr %140, i32 0, i32 85
  call void @av_freep(ptr noundef %141)
  %142 = load ptr, ptr %5, align 8, !tbaa !51
  %143 = getelementptr inbounds nuw %struct.MOVStreamContext, ptr %142, i32 0, i32 87
  call void @av_freep(ptr noundef %143)
  %144 = load ptr, ptr %5, align 8, !tbaa !51
  %145 = getelementptr inbounds nuw %struct.MOVStreamContext, ptr %144, i32 0, i32 89
  call void @av_freep(ptr noundef %145)
  %146 = load ptr, ptr %5, align 8, !tbaa !51
  %147 = getelementptr inbounds nuw %struct.MOVStreamContext, ptr %146, i32 0, i32 91
  call void @av_freep(ptr noundef %147)
  %148 = load ptr, ptr %5, align 8, !tbaa !51
  %149 = getelementptr inbounds nuw %struct.MOVStreamContext, ptr %148, i32 0, i32 93
  call void @av_freep(ptr noundef %149)
  %150 = load ptr, ptr %5, align 8, !tbaa !51
  %151 = getelementptr inbounds nuw %struct.MOVStreamContext, ptr %150, i32 0, i32 98
  %152 = load ptr, ptr %151, align 8, !tbaa !233
  %153 = icmp ne ptr %152, null
  br i1 %153, label %154, label %158

154:                                              ; preds = %124
  %155 = load ptr, ptr %5, align 8, !tbaa !51
  %156 = getelementptr inbounds nuw %struct.MOVStreamContext, ptr %155, i32 0, i32 98
  %157 = load ptr, ptr %156, align 8, !tbaa !233
  call void @ff_iamf_read_deinit(ptr noundef %157)
  br label %158

158:                                              ; preds = %154, %124
  %159 = load ptr, ptr %5, align 8, !tbaa !51
  %160 = getelementptr inbounds nuw %struct.MOVStreamContext, ptr %159, i32 0, i32 98
  call void @av_freep(ptr noundef %160)
  store i32 0, ptr %6, align 4
  br label %161

161:                                              ; preds = %158, %20
  call void @llvm.lifetime.end.p0(i64 8, ptr %5) #14
  %162 = load i32, ptr %6, align 4
  switch i32 %162, label %164 [
    i32 0, label %163
    i32 1, label %163
  ]

163:                                              ; preds = %161, %161
  ret void

164:                                              ; preds = %161
  unreachable
}