; Function Attrs: nounwind uwtable
define internal fastcc void @mov_free_stream_context(ptr noundef %0, ptr noundef captures(none) %1) unnamed_addr #0 {
  %3 = getelementptr inbounds nuw i8, ptr %1, i64 24
  %4 = load ptr, ptr %3, align 8, !tbaa !40
  %.not = icmp eq ptr %4, null
  br i1 %.not, label %9, label %5

5:                                                ; preds = %2
  %6 = getelementptr inbounds nuw i8, ptr %4, i64 8
  %7 = load i32, ptr %6, align 8, !tbaa !392
  %8 = add nsw i32 %7, -1
  store i32 %8, ptr %6, align 8, !tbaa !392
  %.not55 = icmp eq i32 %8, 0
  br i1 %.not55, label %10, label %9

9:                                                ; preds = %5, %2
  store ptr null, ptr %3, align 8, !tbaa !40
  br label %87

10:                                               ; preds = %5
  %11 = getelementptr inbounds nuw i8, ptr %4, i64 48
  tail call void @av_freep(ptr noundef nonnull %11) #16
  %12 = getelementptr inbounds nuw i8, ptr %4, i64 276
  %13 = load i32, ptr %12, align 4, !tbaa !412
  %.not63 = icmp eq i32 %13, 0
  br i1 %.not63, label %._crit_edge, label %.lr.ph

.lr.ph:                                           ; preds = %10
  %14 = getelementptr inbounds nuw i8, ptr %4, i64 280
  br label %18

._crit_edge:                                      ; preds = %18, %10
  %15 = getelementptr inbounds nuw i8, ptr %4, i64 280
  tail call void @av_freep(ptr noundef nonnull %15) #16
  store i32 0, ptr %12, align 4, !tbaa !412
  %16 = getelementptr inbounds nuw i8, ptr %4, i64 12
  %17 = load i32, ptr %16, align 4, !tbaa !536
  %.not56 = icmp eq i32 %17, 0
  br i1 %.not56, label %26, label %28

18:                                               ; preds = %.lr.ph, %18
  %indvars.iv = phi i64 [ 0, %.lr.ph ], [ %indvars.iv.next, %18 ]
  %19 = load ptr, ptr %14, align 8, !tbaa !413
  %20 = getelementptr inbounds nuw %struct.MOVDref, ptr %19, i64 %indvars.iv, i32 1
  tail call void @av_freep(ptr noundef nonnull %20) #16
  %21 = load ptr, ptr %14, align 8, !tbaa !413
  %22 = getelementptr inbounds nuw %struct.MOVDref, ptr %21, i64 %indvars.iv, i32 2
  tail call void @av_freep(ptr noundef nonnull %22) #16
  %indvars.iv.next = add nuw nsw i64 %indvars.iv, 1
  %23 = load i32, ptr %12, align 4, !tbaa !412
  %24 = zext i32 %23 to i64
  %25 = icmp samesign ult i64 %indvars.iv.next, %24
  br i1 %25, label %18, label %._crit_edge, !llvm.loop !761

26:                                               ; preds = %._crit_edge
  %27 = tail call i32 @ff_format_io_close(ptr noundef %0, ptr noundef nonnull %4) #16
  br label %28

28:                                               ; preds = %26, %._crit_edge
  store ptr null, ptr %4, align 8, !tbaa !231
  %29 = getelementptr inbounds nuw i8, ptr %4, i64 32
  tail call void @av_freep(ptr noundef nonnull %29) #16
  %30 = getelementptr inbounds nuw i8, ptr %4, i64 112
  tail call void @av_freep(ptr noundef nonnull %30) #16
  %31 = getelementptr inbounds nuw i8, ptr %4, i64 176
  tail call void @av_freep(ptr noundef nonnull %31) #16
  %32 = getelementptr inbounds nuw i8, ptr %4, i64 192
  tail call void @av_freep(ptr noundef nonnull %32) #16
  %33 = getelementptr inbounds nuw i8, ptr %4, i64 96
  tail call void @av_freep(ptr noundef nonnull %33) #16
  %34 = getelementptr inbounds nuw i8, ptr %4, i64 64
  tail call void @av_freep(ptr noundef nonnull %34) #16
  %35 = getelementptr inbounds nuw i8, ptr %4, i64 80
  tail call void @av_freep(ptr noundef nonnull %35) #16
  %36 = getelementptr inbounds nuw i8, ptr %4, i64 136
  tail call void @av_freep(ptr noundef nonnull %36) #16
  %37 = getelementptr inbounds nuw i8, ptr %4, i64 144
  tail call void @av_freep(ptr noundef nonnull %37) #16
  %38 = getelementptr inbounds nuw i8, ptr %4, i64 1384
  tail call void @av_freep(ptr noundef nonnull %38) #16
  %39 = getelementptr inbounds nuw i8, ptr %4, i64 1400
  tail call void @av_freep(ptr noundef nonnull %39) #16
  %40 = getelementptr inbounds nuw i8, ptr %4, i64 1408
  tail call void @av_freep(ptr noundef nonnull %40) #16
  %41 = getelementptr inbounds nuw i8, ptr %4, i64 1424
  tail call void @av_freep(ptr noundef nonnull %41) #16
  %42 = getelementptr inbounds nuw i8, ptr %4, i64 1440
  tail call void @av_freep(ptr noundef nonnull %42) #16
  %43 = getelementptr inbounds nuw i8, ptr %4, i64 1504
  tail call void @av_freep(ptr noundef nonnull %43) #16
  %44 = getelementptr inbounds nuw i8, ptr %4, i64 240
  tail call void @av_freep(ptr noundef nonnull %44) #16
  %45 = getelementptr inbounds nuw i8, ptr %4, i64 1472
  %46 = load ptr, ptr %45, align 8, !tbaa !120
  %.not57 = icmp eq ptr %46, null
  br i1 %.not57, label %.loopexit, label %.preheader

.preheader:                                       ; preds = %28
  %47 = getelementptr inbounds nuw i8, ptr %4, i64 1492
  %48 = load i32, ptr %47, align 4, !tbaa !124
  %49 = icmp sgt i32 %48, 0
  br i1 %49, label %.lr.ph62, label %.loopexit

.lr.ph62:                                         ; preds = %.preheader, %.lr.ph62
  %indvars.iv65 = phi i64 [ %indvars.iv.next66, %.lr.ph62 ], [ 0, %.preheader ]
  %50 = load ptr, ptr %45, align 8, !tbaa !120
  %51 = getelementptr inbounds nuw ptr, ptr %50, i64 %indvars.iv65
  %52 = load ptr, ptr %51, align 8, !tbaa !123
  tail call void @av_free(ptr noundef %52) #16
  %indvars.iv.next66 = add nuw nsw i64 %indvars.iv65, 1
  %53 = load i32, ptr %47, align 4, !tbaa !124
  %54 = sext i32 %53 to i64
  %55 = icmp slt i64 %indvars.iv.next66, %54
  br i1 %55, label %.lr.ph62, label %.loopexit, !llvm.loop !762

.loopexit:                                        ; preds = %.lr.ph62, %.preheader, %28
  tail call void @av_freep(ptr noundef nonnull %45) #16
  %56 = getelementptr inbounds nuw i8, ptr %4, i64 1480
  tail call void @av_freep(ptr noundef nonnull %56) #16
  %57 = getelementptr inbounds nuw i8, ptr %4, i64 1600
  %58 = getelementptr inbounds nuw i8, ptr %4, i64 1632
  %59 = load ptr, ptr %58, align 8, !tbaa !380
  %.not11.i = icmp eq ptr %59, null
  br i1 %.not11.i, label %mov_free_encryption_index.exit, label %.preheader.i

.preheader.i:                                     ; preds = %.loopexit
  %60 = load i32, ptr %59, align 8, !tbaa !351
  %.not13.i = icmp eq i32 %60, 0
  br i1 %.not13.i, label %._crit_edge.i, label %.lr.ph.i

.lr.ph.i:                                         ; preds = %.preheader.i, %.lr.ph.i
  %indvars.iv.i = phi i64 [ %indvars.iv.next.i, %.lr.ph.i ], [ 0, %.preheader.i ]
  %61 = phi ptr [ %66, %.lr.ph.i ], [ %59, %.preheader.i ]
  %62 = getelementptr inbounds nuw i8, ptr %61, i64 8
  %63 = load ptr, ptr %62, align 8, !tbaa !353
  %64 = getelementptr inbounds nuw ptr, ptr %63, i64 %indvars.iv.i
  %65 = load ptr, ptr %64, align 8, !tbaa !354
  tail call void @av_encryption_info_free(ptr noundef %65) #16
  %indvars.iv.next.i = add nuw nsw i64 %indvars.iv.i, 1
  %66 = load ptr, ptr %58, align 8, !tbaa !380
  %67 = load i32, ptr %66, align 8, !tbaa !351
  %68 = zext i32 %67 to i64
  %69 = icmp samesign ult i64 %indvars.iv.next.i, %68
  br i1 %69, label %.lr.ph.i, label %._crit_edge.i, !llvm.loop !381

._crit_edge.i:                                    ; preds = %.lr.ph.i, %.preheader.i
  %.lcssa.i = phi ptr [ %59, %.preheader.i ], [ %66, %.lr.ph.i ]
  %70 = getelementptr inbounds nuw i8, ptr %.lcssa.i, i64 8
  tail call void @av_freep(ptr noundef nonnull %70) #16
  %71 = load ptr, ptr %58, align 8, !tbaa !380
  %72 = getelementptr inbounds nuw i8, ptr %71, i64 16
  tail call void @av_freep(ptr noundef nonnull %72) #16
  %73 = load ptr, ptr %58, align 8, !tbaa !380
  %74 = getelementptr inbounds nuw i8, ptr %73, i64 40
  tail call void @av_freep(ptr noundef nonnull %74) #16
  tail call void @av_freep(ptr noundef nonnull %58) #16
  br label %mov_free_encryption_index.exit

mov_free_encryption_index.exit:                   ; preds = %.loopexit, %._crit_edge.i
  %75 = getelementptr inbounds nuw i8, ptr %4, i64 1624
  %76 = load ptr, ptr %75, align 8, !tbaa !355
  tail call void @av_encryption_info_free(ptr noundef %76) #16
  %77 = load ptr, ptr %57, align 8, !tbaa !362
  tail call void @av_aes_ctr_free(ptr noundef %77) #16
  %78 = getelementptr inbounds nuw i8, ptr %4, i64 1512
  tail call void @av_freep(ptr noundef nonnull %78) #16
  %79 = getelementptr inbounds nuw i8, ptr %4, i64 1528
  tail call void @av_freep(ptr noundef nonnull %79) #16
  %80 = getelementptr inbounds nuw i8, ptr %4, i64 1544
  tail call void @av_freep(ptr noundef nonnull %80) #16
  %81 = getelementptr inbounds nuw i8, ptr %4, i64 1560
  tail call void @av_freep(ptr noundef nonnull %81) #16
  %82 = getelementptr inbounds nuw i8, ptr %4, i64 1576
  tail call void @av_freep(ptr noundef nonnull %82) #16
  %83 = getelementptr inbounds nuw i8, ptr %4, i64 1640
  %84 = load ptr, ptr %83, align 8, !tbaa !296
  %.not58 = icmp eq ptr %84, null
  br i1 %.not58, label %86, label %85

85:                                               ; preds = %mov_free_encryption_index.exit
  tail call void @ff_iamf_read_deinit(ptr noundef nonnull %84) #16
  br label %86

86:                                               ; preds = %85, %mov_free_encryption_index.exit
  tail call void @av_freep(ptr noundef nonnull %83) #16
  br label %87

87:                                               ; preds = %86, %9
  ret void
}